; Function Attrs: mustprogress nofree norecurse nosync nounwind willreturn memory(readwrite, inaccessiblemem: none) uwtable
define range(i32 0, 129) i32 @ff_vvc_isp_split_type(ptr noundef readonly captures(none) %0, i32 noundef %1) local_unnamed_addr #2 {
  %.not = icmp eq i32 %1, 0
  br i1 %.not, label %87, label %3

3:                                                ; preds = %2
  %4 = getelementptr inbounds nuw i8, ptr %0, i64 4580560
  %5 = load ptr, ptr %4, align 16, !tbaa !67
  %6 = getelementptr inbounds nuw i8, ptr %5, i64 2672
  %7 = getelementptr inbounds nuw i8, ptr %5, i64 790
  %8 = getelementptr inbounds nuw i8, ptr %5, i64 2676
  %9 = load i32, ptr %8, align 4, !tbaa !100
  %10 = ashr i32 %9, 5
  %11 = getelementptr inbounds nuw i8, ptr %5, i64 792
  %12 = load i16, ptr %11, align 2, !tbaa !58
  %13 = zext i16 %12 to i32
  %14 = load i16, ptr %7, align 2, !tbaa !58
  %15 = zext i16 %14 to i32
  %16 = shl nuw nsw i32 %15, 4
  %17 = add nuw nsw i32 %16, %13
  %.not.i = icmp samesign ult i32 %17, 16384
  %18 = sub nsw i32 32767, %17
  %19 = select i1 %.not.i, i32 %17, i32 %18
  %20 = ashr i32 %19, 9
  %21 = mul nsw i32 %20, %10
  %22 = ashr i32 %21, 1
  %23 = add nsw i32 %22, 4
  %24 = sub nsw i32 %9, %23
  %25 = shl i32 %24, 17
  %26 = load i32, ptr %6, align 8, !tbaa !70
  %27 = icmp slt i32 %25, %26
  %28 = select i1 %27, i32 %25, i32 0
  %29 = sub nsw i32 %26, %28
  %30 = select i1 %27, i32 %23, i32 %24
  %31 = sext i32 %30 to i64
  %32 = getelementptr inbounds i8, ptr @ff_h264_cabac_tables, i64 %31
  %33 = load i8, ptr %32, align 1, !tbaa !97
  %34 = zext i8 %33 to i32
  %35 = shl i32 %30, %34
  store i32 %35, ptr %8, align 4, !tbaa !100
  %36 = shl i32 %29, %34
  store i32 %36, ptr %6, align 8, !tbaa !70
  %37 = and i32 %36, 65535
  %.not42.i = icmp eq i32 %37, 0
  br i1 %.not42.i, label %38, label %vvc_get_cabac.exit

38:                                               ; preds = %3
  %39 = add nsw i32 %36, -1
  %40 = xor i32 %39, %36
  %41 = lshr i32 %40, 15
  %42 = zext nneg i32 %41 to i64
  %43 = getelementptr inbounds nuw i8, ptr @ff_h264_cabac_tables, i64 %42
  %44 = load i8, ptr %43, align 1, !tbaa !97
  %45 = zext i8 %44 to i32
  %46 = sub nsw i32 7, %45
  %47 = getelementptr inbounds nuw i8, ptr %5, i64 2688
  %48 = load ptr, ptr %47, align 8, !tbaa !68
  %49 = load i8, ptr %48, align 1, !tbaa !97
  %50 = zext i8 %49 to i32
  %51 = shl nuw nsw i32 %50, 9
  %52 = getelementptr inbounds nuw i8, ptr %48, i64 1
  %53 = load i8, ptr %52, align 1, !tbaa !97
  %54 = zext i8 %53 to i32
  %55 = shl nuw nsw i32 %54, 1
  %56 = or disjoint i32 %55, %51
  %57 = add nsw i32 %56, -65535
  %58 = shl nsw i32 %57, %46
  %59 = add i32 %58, %36
  store i32 %59, ptr %6, align 8, !tbaa !70
  %60 = getelementptr inbounds nuw i8, ptr %5, i64 2696
  %61 = load ptr, ptr %60, align 8, !tbaa !71
  %62 = icmp ult ptr %48, %61
  br i1 %62, label %63, label %vvc_get_cabac.exit

63:                                               ; preds = %38
  %64 = getelementptr inbounds nuw i8, ptr %48, i64 2
  store ptr %64, ptr %47, align 8, !tbaa !68
  br label %vvc_get_cabac.exit

vvc_get_cabac.exit:                               ; preds = %3, %38, %63
  %65 = lshr i32 %17, 14
  %66 = zext i1 %27 to i32
  %67 = xor i32 %65, %66
  %68 = getelementptr inbounds nuw i8, ptr %5, i64 794
  %69 = load i8, ptr %68, align 2, !tbaa !97
  %70 = zext i8 %69 to i32
  %71 = lshr i32 %15, %70
  %72 = sub nsw i32 %15, %71
  %73 = mul nuw nsw i32 %67, 1023
  %74 = lshr i32 %73, %70
  %75 = add nsw i32 %72, %74
  %76 = trunc i32 %75 to i16
  store i16 %76, ptr %7, align 2, !tbaa !58
  %77 = getelementptr inbounds nuw i8, ptr %5, i64 795
  %78 = load i8, ptr %77, align 1, !tbaa !97
  %79 = zext i8 %78 to i32
  %80 = lshr i32 %13, %79
  %81 = sub nsw i32 %13, %80
  %82 = mul nuw nsw i32 %67, 16383
  %83 = lshr i32 %82, %79
  %84 = add nsw i32 %81, %83
  %85 = trunc i32 %84 to i16
  store i16 %85, ptr %11, align 2, !tbaa !58
  %86 = add nuw nsw i32 %67, 1
  br label %87

87:                                               ; preds = %2, %vvc_get_cabac.exit
  %.0 = phi i32 [ %86, %vvc_get_cabac.exit ], [ 0, %2 ]
  ret i32 %.0
}